; ModuleID = '27/1863.c'
source_filename = "27/1863.c"
target datalayout = "e-m:e-p270:32:32-p271:32:32-p272:64:64-i64:64-f80:128-n8:16:32:64-S128"
target triple = "x86_64-pc-linux-gnu"

@.str = private unnamed_addr constant [3 x i8] c"%d\00", align 1
@.str.1 = private unnamed_addr constant [10 x i8] c"%lf%lf%lf\00", align 1
@.str.2 = private unnamed_addr constant [17 x i8] c"x1=%.5f;x2=%.5f\0A\00", align 1
@.str.3 = private unnamed_addr constant [12 x i8] c"x1=x2=%.5f\0A\00", align 1
@.str.4 = private unnamed_addr constant [28 x i8] c"x1=%.5f+%.5fi;x2=%.5f%.5fi\0A\00", align 1

; Function Attrs: noinline nounwind uwtable
define dso_local void @main() #0 {
  %1 = alloca i32, align 4
  %2 = alloca [1000 x double], align 16
  %3 = alloca [1000 x double], align 16
  %4 = alloca [1000 x double], align 16
  %5 = alloca i32, align 4
  %6 = alloca double, align 8
  %7 = alloca double, align 8
  %8 = alloca double, align 8
  %9 = call i32 (i8*, ...) @__isoc99_scanf(i8* getelementptr inbounds ([3 x i8], [3 x i8]* @.str, i64 0, i64 0), i32* %1)
  store i32 0, i32* %5, align 4
  br label %10

10:                                               ; preds = %25, %0
  %11 = load i32, i32* %5, align 4
  %12 = load i32, i32* %1, align 4
  %13 = icmp slt i32 %11, %12
  br i1 %13, label %14, label %28

14:                                               ; preds = %10
  %15 = load i32, i32* %5, align 4
  %16 = sext i32 %15 to i64
  %17 = getelementptr inbounds [1000 x double], [1000 x double]* %2, i64 0, i64 %16
  %18 = load i32, i32* %5, align 4
  %19 = sext i32 %18 to i64
  %20 = getelementptr inbounds [1000 x double], [1000 x double]* %3, i64 0, i64 %19
  %21 = load i32, i32* %5, align 4
  %22 = sext i32 %21 to i64
  %23 = getelementptr inbounds [1000 x double], [1000 x double]* %4, i64 0, i64 %22
  %24 = call i32 (i8*, ...) @__isoc99_scanf(i8* getelementptr inbounds ([10 x i8], [10 x i8]* @.str.1, i64 0, i64 0), double* %17, double* %20, double* %23)
  br label %25

25:                                               ; preds = %14
  %26 = load i32, i32* %5, align 4
  %27 = add nsw i32 %26, 1
  store i32 %27, i32* %5, align 4
  br label %10

28:                                               ; preds = %10
  store i32 0, i32* %5, align 4
  br label %29

29:                                               ; preds = %161, %28
  %30 = load i32, i32* %5, align 4
  %31 = load i32, i32* %1, align 4
  %32 = icmp slt i32 %30, %31
  br i1 %32, label %33, label %164

33:                                               ; preds = %29
  %34 = load i32, i32* %5, align 4
  %35 = sext i32 %34 to i64
  %36 = getelementptr inbounds [1000 x double], [1000 x double]* %3, i64 0, i64 %35
  %37 = load double, double* %36, align 8
  %38 = load i32, i32* %5, align 4
  %39 = sext i32 %38 to i64
  %40 = getelementptr inbounds [1000 x double], [1000 x double]* %3, i64 0, i64 %39
  %41 = load double, double* %40, align 8
  %42 = fmul double %37, %41
  %43 = load i32, i32* %5, align 4
  %44 = sext i32 %43 to i64
  %45 = getelementptr inbounds [1000 x double], [1000 x double]* %2, i64 0, i64 %44
  %46 = load double, double* %45, align 8
  %47 = fmul double 4.000000e+00, %46
  %48 = load i32, i32* %5, align 4
  %49 = sext i32 %48 to i64
  %50 = getelementptr inbounds [1000 x double], [1000 x double]* %4, i64 0, i64 %49
  %51 = load double, double* %50, align 8
  %52 = fmul double %47, %51
  %53 = fsub double %42, %52
  store double %53, double* %8, align 8
  %54 = load double, double* %8, align 8
  %55 = fcmp ogt double %54, 0.000000e+00
  br i1 %55, label %56, label %88

56:                                               ; preds = %33
  %57 = load i32, i32* %5, align 4
  %58 = sext i32 %57 to i64
  %59 = getelementptr inbounds [1000 x double], [1000 x double]* %3, i64 0, i64 %58
  %60 = load double, double* %59, align 8
  %61 = fneg double %60
  %62 = load double, double* %8, align 8
  %63 = call double @sqrt(double %62) #3
  %64 = fadd double %61, %63
  %65 = load i32, i32* %5, align 4
  %66 = sext i32 %65 to i64
  %67 = getelementptr inbounds [1000 x double], [1000 x double]* %2, i64 0, i64 %66
  %68 = load double, double* %67, align 8
  %69 = fmul double 2.000000e+00, %68
  %70 = fdiv double %64, %69
  store double %70, double* %6, align 8
  %71 = load i32, i32* %5, align 4
  %72 = sext i32 %71 to i64
  %73 = getelementptr inbounds [1000 x double], [1000 x double]* %3, i64 0, i64 %72
  %74 = load double, double* %73, align 8
  %75 = fneg double %74
  %76 = load double, double* %8, align 8
  %77 = call double @sqrt(double %76) #3
  %78 = fsub double %75, %77
  %79 = load i32, i32* %5, align 4
  %80 = sext i32 %79 to i64
  %81 = getelementptr inbounds [1000 x double], [1000 x double]* %2, i64 0, i64 %80
  %82 = load double, double* %81, align 8
  %83 = fmul double 2.000000e+00, %82
  %84 = fdiv double %78, %83
  store double %84, double* %7, align 8
  %85 = load double, double* %6, align 8
  %86 = load double, double* %7, align 8
  %87 = call i32 (i8*, ...) @printf(i8* getelementptr inbounds ([17 x i8], [17 x i8]* @.str.2, i64 0, i64 0), double %85, double %86)
  br label %160

88:                                               ; preds = %33
  %89 = load double, double* %8, align 8
  %90 = fcmp oeq double %89, 0.000000e+00
  br i1 %90, label %91, label %116

91:                                               ; preds = %88
  %92 = load i32, i32* %5, align 4
  %93 = sext i32 %92 to i64
  %94 = getelementptr inbounds [1000 x double], [1000 x double]* %3, i64 0, i64 %93
  %95 = load double, double* %94, align 8
  %96 = fneg double %95
  %97 = load i32, i32* %5, align 4
  %98 = sext i32 %97 to i64
  %99 = getelementptr inbounds [1000 x double], [1000 x double]* %2, i64 0, i64 %98
  %100 = load double, double* %99, align 8
  %101 = fmul double 2.000000e+00, %100
  %102 = fdiv double %96, %101
  store double %102, double* %6, align 8
  %103 = load i32, i32* %5, align 4
  %104 = sext i32 %103 to i64
  %105 = getelementptr inbounds [1000 x double], [1000 x double]* %3, i64 0, i64 %104
  %106 = load double, double* %105, align 8
  %107 = fneg double %106
  %108 = load i32, i32* %5, align 4
  %109 = sext i32 %108 to i64
  %110 = getelementptr inbounds [1000 x double], [1000 x double]* %2, i64 0, i64 %109
  %111 = load double, double* %110, align 8
  %112 = fmul double 2.000000e+00, %111
  %113 = fdiv double %107, %112
  store double %113, double* %7, align 8
  %114 = load double, double* %6, align 8
  %115 = call i32 (i8*, ...) @printf(i8* getelementptr inbounds ([12 x i8], [12 x i8]* @.str.3, i64 0, i64 0), double %114)
  br label %159

116:                                              ; preds = %88
  %117 = load i32, i32* %5, align 4
  %118 = sext i32 %117 to i64
  %119 = getelementptr inbounds [1000 x double], [1000 x double]* %3, i64 0, i64 %118
  %120 = load double, double* %119, align 8
  %121 = fneg double %120
  %122 = load i32, i32* %5, align 4
  %123 = sext i32 %122 to i64
  %124 = getelementptr inbounds [1000 x double], [1000 x double]* %2, i64 0, i64 %123
  %125 = load double, double* %124, align 8
  %126 = fmul double 2.000000e+00, %125
  %127 = fdiv double %121, %126
  %128 = load double, double* %8, align 8
  %129 = fneg double %128
  %130 = call double @sqrt(double %129) #3
  %131 = load i32, i32* %5, align 4
  %132 = sext i32 %131 to i64
  %133 = getelementptr inbounds [1000 x double], [1000 x double]* %2, i64 0, i64 %132
  %134 = load double, double* %133, align 8
  %135 = fmul double 2.000000e+00, %134
  %136 = fdiv double %130, %135
  %137 = load i32, i32* %5, align 4
  %138 = sext i32 %137 to i64
  %139 = getelementptr inbounds [1000 x double], [1000 x double]* %3, i64 0, i64 %138
  %140 = load double, double* %139, align 8
  %141 = fneg double %140
  %142 = load i32, i32* %5, align 4
  %143 = sext i32 %142 to i64
  %144 = getelementptr inbounds [1000 x double], [1000 x double]* %2, i64 0, i64 %143
  %145 = load double, double* %144, align 8
  %146 = fmul double 2.000000e+00, %145
  %147 = fdiv double %141, %146
  %148 = load double, double* %8, align 8
  %149 = fneg double %148
  %150 = call double @sqrt(double %149) #3
  %151 = fneg double %150
  %152 = load i32, i32* %5, align 4
  %153 = sext i32 %152 to i64
  %154 = getelementptr inbounds [1000 x double], [1000 x double]* %2, i64 0, i64 %153
  %155 = load double, double* %154, align 8
  %156 = fmul double 2.000000e+00, %155
  %157 = fdiv double %151, %156
  %158 = call i32 (i8*, ...) @printf(i8* getelementptr inbounds ([28 x i8], [28 x i8]* @.str.4, i64 0, i64 0), double %127, double %136, double %147, double %157)
  br label %159

159:                                              ; preds = %116, %91
  br label %160

160:                                              ; preds = %159, %56
  br label %161

161:                                              ; preds = %160
  %162 = load i32, i32* %5, align 4
  %163 = add nsw i32 %162, 1
  store i32 %163, i32* %5, align 4
  br label %29

164:                                              ; preds = %29
  ret void
}

declare dso_local i32 @__isoc99_scanf(i8*, ...) #1

; Function Attrs: nounwind
declare dso_local double @sqrt(double) #2

declare dso_local i32 @printf(i8*, ...) #1


!llvm.module.flags = !{!0}
!llvm.ident = !{!1}

!0 = !{i32 1, !"wchar_size", i32 4}
!1 = !{!"clang version 10.0.0-4ubuntu1 "}
